; ModuleID = 'source-C-CXX/25/879.c'
source_filename = "source-C-CXX/25/879.c"
target datalayout = "e-m:e-p270:32:32-p271:32:32-p272:64:64-i64:64-f80:128-n8:16:32:64-S128"
target triple = "x86_64-pc-linux-gnu"

; Function Attrs: nounwind sspstrong uwtable
define dso_local i32 @main() local_unnamed_addr #0 {
  %1 = alloca [101 x i8], align 16
  %2 = alloca [101 x i8], align 16
  %3 = getelementptr inbounds [101 x i8], [101 x i8]* %1, i64 0, i64 0
  call void @llvm.lifetime.start.p0i8(i64 101, i8* nonnull %3) #5
  %4 = getelementptr inbounds [101 x i8], [101 x i8]* %2, i64 0, i64 0
  call void @llvm.lifetime.start.p0i8(i64 101, i8* nonnull %4) #5
  %5 = call i32 (i8*, ...) bitcast (i32 (...)* @gets to i32 (i8*, ...)*)(i8* nonnull %3) #5
  %6 = call i64 @strlen(i8* noundef nonnull %3) #6
  %7 = trunc i64 %6 to i32
  %8 = icmp sgt i32 %7, 0
  br i1 %8, label %9, label %46

9:                                                ; preds = %0
  %10 = and i64 %6, 4294967295
  br label %15

11:                                               ; preds = %34
  %12 = icmp sgt i32 %35, 0
  br i1 %12, label %13, label %46

13:                                               ; preds = %11
  %14 = zext i32 %35 to i64
  br label %38

15:                                               ; preds = %9, %34
  %16 = phi i64 [ 0, %9 ], [ %36, %34 ]
  %17 = phi i32 [ 0, %9 ], [ %35, %34 ]
  %18 = getelementptr inbounds [101 x i8], [101 x i8]* %1, i64 0, i64 %16
  %19 = load i8, i8* %18, align 1, !tbaa !5
  %20 = icmp eq i8 %19, 32
  %21 = sext i32 %17 to i64
  %22 = getelementptr inbounds [101 x i8], [101 x i8]* %2, i64 0, i64 %21
  br i1 %20, label %33, label %23

23:                                               ; preds = %15
  %24 = load i8, i8* %22, align 1, !tbaa !5
  %25 = icmp eq i8 %24, 32
  br i1 %25, label %26, label %31

26:                                               ; preds = %23
  %27 = add nsw i32 %17, 1
  %28 = sext i32 %27 to i64
  %29 = getelementptr inbounds [101 x i8], [101 x i8]* %2, i64 0, i64 %28
  store i8 %19, i8* %29, align 1, !tbaa !5
  %30 = add nsw i32 %17, 2
  br label %34

31:                                               ; preds = %23
  store i8 %19, i8* %22, align 1, !tbaa !5
  %32 = add nsw i32 %17, 1
  br label %34

33:                                               ; preds = %15
  store i8 32, i8* %22, align 1, !tbaa !5
  br label %34

34:                                               ; preds = %33, %31, %26
  %35 = phi i32 [ %30, %26 ], [ %32, %31 ], [ %17, %33 ]
  %36 = add nuw nsw i64 %16, 1
  %37 = icmp eq i64 %36, %10
  br i1 %37, label %11, label %15, !llvm.loop !8

38:                                               ; preds = %13, %38
  %39 = phi i64 [ 0, %13 ], [ %44, %38 ]
  %40 = getelementptr inbounds [101 x i8], [101 x i8]* %2, i64 0, i64 %39
  %41 = load i8, i8* %40, align 1, !tbaa !5
  %42 = sext i8 %41 to i32
  %43 = call i32 @putchar(i32 %42)
  %44 = add nuw nsw i64 %39, 1
  %45 = icmp eq i64 %44, %14
  br i1 %45, label %46, label %38, !llvm.loop !10

46:                                               ; preds = %38, %0, %11
  call void @llvm.lifetime.end.p0i8(i64 101, i8* nonnull %4) #5
  call void @llvm.lifetime.end.p0i8(i64 101, i8* nonnull %3) #5
  ret i32 0
}

; Function Attrs: argmemonly mustprogress nofree nosync nounwind willreturn
declare void @llvm.lifetime.start.p0i8(i64 immarg, i8* nocapture) #1

declare i32 @gets(...) local_unnamed_addr #2

; Function Attrs: argmemonly mustprogress nofree nounwind readonly willreturn
declare i64 @strlen(i8* nocapture) local_unnamed_addr #3

; Function Attrs: argmemonly mustprogress nofree nosync nounwind willreturn
declare void @llvm.lifetime.end.p0i8(i64 immarg, i8* nocapture) #1

; Function Attrs: nofree nounwind
declare noundef i32 @putchar(i32 noundef) local_unnamed_addr #4


!llvm.module.flags = !{!0, !1, !2, !3}
!llvm.ident = !{!4}

!0 = !{i32 1, !"wchar_size", i32 4}
!1 = !{i32 7, !"PIC Level", i32 2}
!2 = !{i32 7, !"PIE Level", i32 2}
!3 = !{i32 7, !"uwtable", i32 1}
!4 = !{!"clang version 13.0.0"}
!5 = !{!6, !6, i64 0}
!6 = !{!"omnipotent char", !7, i64 0}
!7 = !{!"Simple C/C++ TBAA"}
!8 = distinct !{!8, !9}
!9 = !{!"llvm.loop.mustprogress"}
!10 = distinct !{!10, !9}
